target datalayout = "e-m:e-p270:32:32-p271:32:32-p272:64:64-i64:64-i128:128-f80:128-n8:16:32:64-S128"
target triple = "x86_64-pc-linux-gnu"

%struct.stat = type { i64, i64, i64, i32, i32, i32, i32, i64, i64, i64, i64, %struct.timespec, %struct.timespec, %struct.timespec, [3 x i64] }
%struct.timespec = type { i64, i64 }

@.str.1 = private unnamed_addr constant [10 x i8] c"pg_wal/%s\00", align 1
@.str.3 = private unnamed_addr constant [14 x i8] c"xlogarchive.c\00", align 1
@.str.4 = private unnamed_addr constant [31 x i8] c"could not remove file \22%s\22: %m\00", align 1
@__func__.KeepFileRestoredFromArchive = private unnamed_addr constant [28 x i8] c"KeepFileRestoredFromArchive\00", align 1
@XLogArchiveMode = external global i32, align 4

; Function Attrs: nounwind uwtable
define dso_local void @KeepFileRestoredFromArchive(ptr noundef %0, ptr noundef %1) #0 {
  %3 = alloca ptr, align 8
  %4 = alloca ptr, align 8
  %5 = alloca [1024 x i8], align 16
  %6 = alloca i8, align 1
  %7 = alloca %struct.stat, align 8
  %8 = alloca [1024 x i8], align 16
  store ptr %0, ptr %3, align 8
  store ptr %1, ptr %4, align 8
  call void @llvm.lifetime.start.p0(i64 1024, ptr %5) #10
  call void @llvm.lifetime.start.p0(i64 1, ptr %6) #10
  store i8 0, ptr %6, align 1
  call void @llvm.lifetime.start.p0(i64 144, ptr %7) #10
  %9 = getelementptr inbounds [1024 x i8], ptr %5, i64 0, i64 0
  %10 = load ptr, ptr %4, align 8
  %11 = call i32 (ptr, i64, ptr, ...) @pg_snprintf(ptr noundef %9, i64 noundef 1024, ptr noundef @.str.1, ptr noundef %10)
  %12 = getelementptr inbounds [1024 x i8], ptr %5, i64 0, i64 0
  %13 = call i32 @stat(ptr noundef %12, ptr noundef %7) #10
  %14 = icmp eq i32 %13, 0
  br i1 %14, label %15, label %36

15:                                               ; preds = %2
  call void @llvm.lifetime.start.p0(i64 1024, ptr %8) #10
  %16 = getelementptr inbounds [1024 x i8], ptr %8, i64 0, i64 0
  %17 = getelementptr inbounds [1024 x i8], ptr %5, i64 0, i64 0
  %18 = call i64 @strlcpy(ptr noundef %16, ptr noundef %17, i64 noundef 1024)
  %19 = getelementptr inbounds [1024 x i8], ptr %8, i64 0, i64 0
  %20 = call i32 @unlink(ptr noundef %19) #10
  %21 = icmp ne i32 %20, 0
  br i1 %21, label %22, label %35

22:                                               ; preds = %15
  br label %23

23:                                               ; preds = %22
  br i1 true, label %24, label %26

24:                                               ; preds = %23
  %25 = call zeroext i1 @errstart_cold(i32 noundef 22, ptr noundef null) #13
  br i1 %25, label %28, label %32

26:                                               ; preds = %23
  %27 = call zeroext i1 @errstart(i32 noundef 22, ptr noundef null)
  br i1 %27, label %28, label %32

28:                                               ; preds = %26, %24
  %29 = call i32 @errcode_for_file_access()
  %30 = getelementptr inbounds [1024 x i8], ptr %5, i64 0, i64 0
  %31 = call i32 (ptr, ...) @errmsg(ptr noundef @.str.4, ptr noundef %30)
  call void @errfinish(ptr noundef @.str.3, i32 noundef 400, ptr noundef @__func__.KeepFileRestoredFromArchive)
  br label %32

32:                                               ; preds = %28, %26, %24
  unreachable

33:                                               ; No predecessors!
  br label %34

34:                                               ; preds = %33
  br label %35

35:                                               ; preds = %34, %15
  store i8 1, ptr %6, align 1
  call void @llvm.lifetime.end.p0(i64 1024, ptr %8) #10
  br label %36

36:                                               ; preds = %35, %2
  %37 = load ptr, ptr %3, align 8
  %38 = getelementptr inbounds [1024 x i8], ptr %5, i64 0, i64 0
  %39 = call i32 @durable_rename(ptr noundef %37, ptr noundef %38, i32 noundef 21)
  %40 = load i32, ptr @XLogArchiveMode, align 4
  %41 = icmp ne i32 %40, 2
  br i1 %41, label %42, label %44

42:                                               ; preds = %36
  %43 = load ptr, ptr %4, align 8
  call void @XLogArchiveForceDone(ptr noundef %43)
  br label %46

44:                                               ; preds = %36
  %45 = load ptr, ptr %4, align 8
  call void @XLogArchiveNotify(ptr noundef %45)
  br label %46

46:                                               ; preds = %44, %42
  %47 = load i8, ptr %6, align 1, !range !4, !noundef !5
  %48 = trunc i8 %47 to i1
  br i1 %48, label %49, label %50

49:                                               ; preds = %46
  call void @WalSndRqstFileReload()
  br label %50

50:                                               ; preds = %49, %46
  call void @WalSndWakeup(i1 noundef zeroext true, i1 noundef zeroext false)
  call void @llvm.lifetime.end.p0(i64 144, ptr %7) #10
  call void @llvm.lifetime.end.p0(i64 1, ptr %6) #10
  call void @llvm.lifetime.end.p0(i64 1024, ptr %5) #10
  ret void
}