; Function Attrs: nounwind uwtable
define dso_local void @KeepFileRestoredFromArchive(ptr noundef %0, ptr noundef %1) local_unnamed_addr #0 {
  %3 = alloca [1024 x i8], align 16
  %4 = alloca %struct.stat, align 8
  %5 = alloca [1024 x i8], align 16
  call void @llvm.lifetime.start.p0(i64 1024, ptr nonnull %3) #11
  call void @llvm.lifetime.start.p0(i64 144, ptr nonnull %4) #11
  %6 = call i32 (ptr, i64, ptr, ...) @pg_snprintf(ptr noundef nonnull %3, i64 noundef 1024, ptr noundef nonnull @.str.1, ptr noundef %1) #11
  %7 = call i32 @stat(ptr noundef nonnull %3, ptr noundef nonnull %4) #11
  %8 = icmp eq i32 %7, 0
  br i1 %8, label %9, label %17

9:                                                ; preds = %2
  call void @llvm.lifetime.start.p0(i64 1024, ptr nonnull %5) #11
  %10 = call i64 @strlcpy(ptr noundef nonnull dereferenceable(1) %5, ptr noundef nonnull dereferenceable(1) %3, i64 noundef 1024) #11
  %11 = call i32 @unlink(ptr noundef nonnull %5) #11
  %.not = icmp eq i32 %11, 0
  br i1 %.not, label %16, label %12

12:                                               ; preds = %9
  %13 = call zeroext i1 @errstart_cold(i32 noundef 22, ptr noundef null) #13
  call void @llvm.assume(i1 %13)
  %14 = call i32 @errcode_for_file_access() #11
  %15 = call i32 (ptr, ...) @errmsg(ptr noundef nonnull @.str.4, ptr noundef nonnull %3) #11
  call void @errfinish(ptr noundef nonnull @.str.3, i32 noundef 400, ptr noundef nonnull @__func__.KeepFileRestoredFromArchive) #11
  unreachable

16:                                               ; preds = %9
  call void @llvm.lifetime.end.p0(i64 1024, ptr nonnull %5) #11
  br label %17

17:                                               ; preds = %16, %2
  %18 = call i32 @durable_rename(ptr noundef %0, ptr noundef nonnull %3, i32 noundef 21) #11
  %19 = load i32, ptr @XLogArchiveMode, align 4
  %.not4 = icmp eq i32 %19, 2
  br i1 %.not4, label %21, label %20

20:                                               ; preds = %17
  call void @XLogArchiveForceDone(ptr noundef %1)
  br label %22

21:                                               ; preds = %17
  call void @XLogArchiveNotify(ptr noundef %1)
  br label %22

22:                                               ; preds = %21, %20
  br i1 %8, label %23, label %24

23:                                               ; preds = %22
  call void @WalSndRqstFileReload() #11
  br label %24

24:                                               ; preds = %23, %22
  call void @WalSndWakeup(i1 noundef zeroext true, i1 noundef zeroext false) #11
  call void @llvm.lifetime.end.p0(i64 144, ptr nonnull %4) #11
  call void @llvm.lifetime.end.p0(i64 1024, ptr nonnull %3) #11
  ret void
}